target datalayout = "e-m:e-p270:32:32-p271:32:32-p272:64:64-i64:64-i128:128-f80:128-n8:16:32:64-S128"
target triple = "x86_64-pc-linux-gnu"

%struct.object_id = type { [32 x i8], i32 }
%struct.oid_array = type { ptr, i64, i64, i32 }
%struct.shallow_info = type { ptr, ptr, i64, ptr, i64, ptr, ptr, ptr, ptr, ptr, ptr, i64 }
%struct.trace_key = type { ptr, i32, i8 }

@.str = private unnamed_addr constant [10 x i8] c"shallow.c\00", align 1
@the_repository = external global ptr, align 8
@trace_shallow = dso_local global { ptr, i32, i8, [3 x i8] } { ptr @.str.10, i32 0, i8 0, [3 x i8] zeroinitializer }, align 8
@.str.12 = private unnamed_addr constant [44 x i8] c"shallow: remove_nonexistent_theirs_shallow\0A\00", align 1

; Function Attrs: inlinehint nounwind uwtable
define internal i32 @trace_pass_fl(ptr noundef %0) #3 {
  %2 = alloca ptr, align 8
  store ptr %0, ptr %2, align 8, !tbaa !140
  %3 = load ptr, ptr %2, align 8, !tbaa !140
  %4 = getelementptr inbounds nuw %struct.trace_key, ptr %3, i32 0, i32 1
  %5 = load i32, ptr %4, align 8, !tbaa !142
  %6 = icmp ne i32 %5, 0
  br i1 %6, label %15, label %7

7:                                                ; preds = %1
  %8 = load ptr, ptr %2, align 8, !tbaa !140
  %9 = getelementptr inbounds nuw %struct.trace_key, ptr %8, i32 0, i32 2
  %10 = load i8, ptr %9, align 4
  %11 = and i8 %10, 1
  %12 = zext i8 %11 to i32
  %13 = icmp ne i32 %12, 0
  %14 = xor i1 %13, true
  br label %15

15:                                               ; preds = %7, %1
  %16 = phi i1 [ true, %1 ], [ %14, %7 ]
  %17 = zext i1 %16 to i32
  ret i32 %17
}

; Function Attrs: nounwind uwtable
define dso_local void @remove_nonexistent_theirs_shallow(ptr noundef %0) #0 {
  %2 = alloca ptr, align 8
  %3 = alloca ptr, align 8
  %4 = alloca i64, align 8
  %5 = alloca i64, align 8
  store ptr %0, ptr %2, align 8, !tbaa !129
  call void @llvm.lifetime.start.p0(i64 8, ptr %3) #12
  %6 = load ptr, ptr %2, align 8, !tbaa !129
  %7 = getelementptr inbounds nuw %struct.shallow_info, ptr %6, i32 0, i32 0
  %8 = load ptr, ptr %7, align 8, !tbaa !131
  %9 = getelementptr inbounds nuw %struct.oid_array, ptr %8, i32 0, i32 0
  %10 = load ptr, ptr %9, align 8, !tbaa !116
  store ptr %10, ptr %3, align 8, !tbaa !40
  call void @llvm.lifetime.start.p0(i64 8, ptr %4) #12
  call void @llvm.lifetime.start.p0(i64 8, ptr %5) #12
  br label %11

11:                                               ; preds = %1
  %12 = call i32 @trace_pass_fl(ptr noundef @trace_shallow)
  %13 = icmp ne i32 %12, 0
  br i1 %13, label %14, label %15

14:                                               ; preds = %11
  call void (ptr, i32, ptr, ptr, ...) @trace_printf_key_fl(ptr noundef @.str, i32 noundef 510, ptr noundef @trace_shallow, ptr noundef @.str.12)
  br label %15

15:                                               ; preds = %14, %11
  br label %16

16:                                               ; preds = %15
  br label %17

17:                                               ; preds = %16
  store i64 0, ptr %5, align 8, !tbaa !56
  store i64 0, ptr %4, align 8, !tbaa !56
  br label %18

18:                                               ; preds = %56, %17
  %19 = load i64, ptr %4, align 8, !tbaa !56
  %20 = load ptr, ptr %2, align 8, !tbaa !129
  %21 = getelementptr inbounds nuw %struct.shallow_info, ptr %20, i32 0, i32 4
  %22 = load i64, ptr %21, align 8, !tbaa !138
  %23 = icmp ult i64 %19, %22
  br i1 %23, label %24, label %59

24:                                               ; preds = %18
  %25 = load i64, ptr %4, align 8, !tbaa !56
  %26 = load i64, ptr %5, align 8, !tbaa !56
  %27 = icmp ne i64 %25, %26
  br i1 %27, label %28, label %40

28:                                               ; preds = %24
  %29 = load ptr, ptr %2, align 8, !tbaa !129
  %30 = getelementptr inbounds nuw %struct.shallow_info, ptr %29, i32 0, i32 3
  %31 = load ptr, ptr %30, align 8, !tbaa !136
  %32 = load i64, ptr %4, align 8, !tbaa !56
  %33 = getelementptr inbounds nuw i64, ptr %31, i64 %32
  %34 = load i64, ptr %33, align 8, !tbaa !56
  %35 = load ptr, ptr %2, align 8, !tbaa !129
  %36 = getelementptr inbounds nuw %struct.shallow_info, ptr %35, i32 0, i32 3
  %37 = load ptr, ptr %36, align 8, !tbaa !136
  %38 = load i64, ptr %5, align 8, !tbaa !56
  %39 = getelementptr inbounds nuw i64, ptr %37, i64 %38
  store i64 %34, ptr %39, align 8, !tbaa !56
  br label %40

40:                                               ; preds = %28, %24
  %41 = load ptr, ptr @the_repository, align 8, !tbaa !4
  %42 = load ptr, ptr %3, align 8, !tbaa !40
  %43 = load ptr, ptr %2, align 8, !tbaa !129
  %44 = getelementptr inbounds nuw %struct.shallow_info, ptr %43, i32 0, i32 3
  %45 = load ptr, ptr %44, align 8, !tbaa !136
  %46 = load i64, ptr %4, align 8, !tbaa !56
  %47 = getelementptr inbounds nuw i64, ptr %45, i64 %46
  %48 = load i64, ptr %47, align 8, !tbaa !56
  %49 = getelementptr inbounds nuw %struct.object_id, ptr %42, i64 %48
  %50 = call i32 @repo_has_object_file(ptr noundef %41, ptr noundef %49)
  %51 = icmp ne i32 %50, 0
  br i1 %51, label %52, label %55

52:                                               ; preds = %40
  %53 = load i64, ptr %5, align 8, !tbaa !56
  %54 = add i64 %53, 1
  store i64 %54, ptr %5, align 8, !tbaa !56
  br label %55

55:                                               ; preds = %52, %40
  br label %56

56:                                               ; preds = %55
  %57 = load i64, ptr %4, align 8, !tbaa !56
  %58 = add i64 %57, 1
  store i64 %58, ptr %4, align 8, !tbaa !56
  br label %18, !llvm.loop !149

59:                                               ; preds = %18
  %60 = load i64, ptr %5, align 8, !tbaa !56
  %61 = load ptr, ptr %2, align 8, !tbaa !129
  %62 = getelementptr inbounds nuw %struct.shallow_info, ptr %61, i32 0, i32 4
  store i64 %60, ptr %62, align 8, !tbaa !138
  call void @llvm.lifetime.end.p0(i64 8, ptr %5) #12
  call void @llvm.lifetime.end.p0(i64 8, ptr %4) #12
  call void @llvm.lifetime.end.p0(i64 8, ptr %3) #12
  ret void
}