; Function Attrs: nounwind uwtable
define dso_local void @remove_nonexistent_theirs_shallow(ptr noundef captures(none) %0) local_unnamed_addr #0 {
  %2 = load ptr, ptr %0, align 8, !tbaa !106
  %3 = load ptr, ptr %2, align 8, !tbaa !89
  %4 = load i32, ptr getelementptr inbounds nuw (i8, ptr @trace_shallow, i64 8), align 8, !tbaa !104
  %.not.i = icmp eq i32 %4, 0
  %5 = load i8, ptr getelementptr inbounds nuw (i8, ptr @trace_shallow, i64 12), align 4
  %6 = and i8 %5, 1
  %.not18 = icmp ne i8 %6, 0
  %.not = select i1 %.not.i, i1 %.not18, i1 false
  br i1 %.not, label %8, label %7

7:                                                ; preds = %1
  tail call void (ptr, i32, ptr, ptr, ...) @trace_printf_key_fl(ptr noundef nonnull @.str, i32 noundef 510, ptr noundef nonnull @trace_shallow, ptr noundef nonnull @.str.12) #15
  br label %8

8:                                                ; preds = %7, %1
  %9 = getelementptr inbounds nuw i8, ptr %0, i64 32
  %10 = load i64, ptr %9, align 8, !tbaa !115
  %.not21 = icmp eq i64 %10, 0
  br i1 %.not21, label %._crit_edge, label %.lr.ph

.lr.ph:                                           ; preds = %8
  %11 = getelementptr inbounds nuw i8, ptr %0, i64 24
  br label %12

12:                                               ; preds = %.lr.ph, %17
  %.020 = phi i64 [ 0, %.lr.ph ], [ %spec.select, %17 ]
  %.01519 = phi i64 [ 0, %.lr.ph ], [ %23, %17 ]
  %.not16 = icmp eq i64 %.01519, %.020
  %.pre = load ptr, ptr %11, align 8, !tbaa !112
  br i1 %.not16, label %._crit_edge22, label %13

._crit_edge22:                                    ; preds = %12
  %.phi.trans.insert = getelementptr inbounds nuw i64, ptr %.pre, i64 %.020
  %.pre23 = load i64, ptr %.phi.trans.insert, align 8, !tbaa !114
  br label %17

13:                                               ; preds = %12
  %14 = getelementptr inbounds nuw i64, ptr %.pre, i64 %.01519
  %15 = load i64, ptr %14, align 8, !tbaa !114
  %16 = getelementptr inbounds nuw i64, ptr %.pre, i64 %.020
  store i64 %15, ptr %16, align 8, !tbaa !114
  br label %17

17:                                               ; preds = %._crit_edge22, %13
  %18 = phi i64 [ %.pre23, %._crit_edge22 ], [ %15, %13 ]
  %19 = load ptr, ptr @the_repository, align 8, !tbaa !45
  %20 = getelementptr inbounds nuw %struct.object_id, ptr %3, i64 %18
  %21 = tail call i32 @repo_has_object_file(ptr noundef %19, ptr noundef %20) #15
  %.not17 = icmp ne i32 %21, 0
  %22 = zext i1 %.not17 to i64
  %spec.select = add i64 %.020, %22
  %23 = add nuw i64 %.01519, 1
  %24 = load i64, ptr %9, align 8, !tbaa !115
  %25 = icmp ult i64 %23, %24
  br i1 %25, label %12, label %._crit_edge, !llvm.loop !122

._crit_edge:                                      ; preds = %17, %8
  %.0.lcssa = phi i64 [ 0, %8 ], [ %spec.select, %17 ]
  store i64 %.0.lcssa, ptr %9, align 8, !tbaa !115
  ret void
}